target datalayout = "e-m:e-p270:32:32-p271:32:32-p272:64:64-i64:64-i128:128-f80:128-n8:16:32:64-S128"
target triple = "x86_64-unknown-linux-gnu"

%"class.icu_75::UObject" = type { ptr }
%"class.icu_75::UnicodeString" = type { %"class.icu_75::Replaceable", %"union.icu_75::UnicodeString::StackBufferOrFields" }
%"class.icu_75::Replaceable" = type { %"class.icu_75::UObject" }
%"union.icu_75::UnicodeString::StackBufferOrFields" = type { %struct.anon.0, [32 x i8] }
%struct.anon.0 = type { i16, i32, i32, ptr }
%"class.icu_75::Hashtable" = type { ptr, %struct.UHashtable }
%struct.UHashtable = type { ptr, ptr, ptr, ptr, ptr, ptr, i32, i32, i32, i32, float, float, i8, i8 }
%struct.anon = type { i16, [27 x i16] }
%union.UElement = type { ptr }
%struct.UHashElement = type { i32, %union.UElement, %union.UElement }

@_ZTVN6icu_757UObjectE = external unnamed_addr constant { [5 x ptr] }, align 8
@_ZTVN6icu_7513UnicodeStringE = external unnamed_addr constant { [13 x ptr] }, align 8
@_ZTVN6icu_7511ReplaceableE = external unnamed_addr constant { [13 x ptr] }, align 8

; Function Attrs: mustprogress nounwind uwtable
define linkonce_odr void @_ZN6icu_757UObjectC2Ev(ptr noundef nonnull align 8 dereferenceable(8) %this) unnamed_addr #0 comdat align 2 {
entry:
  %this.addr = alloca ptr, align 8
  store ptr %this, ptr %this.addr, align 8
  %this1 = load ptr, ptr %this.addr, align 8
  store ptr getelementptr inbounds ({ [5 x ptr] }, ptr @_ZTVN6icu_757UObjectE, i32 0, i32 0, i32 2), ptr %this1, align 8
  ret void
}

; Function Attrs: mustprogress nounwind uwtable
define linkonce_odr void @_ZN6icu_7511ReplaceableC2Ev(ptr noundef nonnull align 8 dereferenceable(8) %this) unnamed_addr #0 comdat align 2 {
entry:
  %this.addr = alloca ptr, align 8
  store ptr %this, ptr %this.addr, align 8
  %this1 = load ptr, ptr %this.addr, align 8
  call void @_ZN6icu_757UObjectC2Ev(ptr noundef nonnull align 8 dereferenceable(8) %this1) #9
  store ptr getelementptr inbounds ({ [13 x ptr] }, ptr @_ZTVN6icu_7511ReplaceableE, i32 0, i32 0, i32 2), ptr %this1, align 8
  ret void
}

; Function Attrs: mustprogress uwtable
define linkonce_odr noundef ptr @_ZN6icu_759Hashtable3putERKNS_13UnicodeStringEPvR10UErrorCode(ptr noundef nonnull align 8 dereferenceable(88) %this, ptr noundef nonnull align 8 dereferenceable(64) %key, ptr noundef %value, ptr noundef nonnull align 4 dereferenceable(4) %status) #1 comdat align 2 personality ptr @__gxx_personality_v0 {
entry:
  %this.addr = alloca ptr, align 8
  %key.addr = alloca ptr, align 8
  %value.addr = alloca ptr, align 8
  %status.addr = alloca ptr, align 8
  %cleanup.cond = alloca i1, align 1
  %exn.slot = alloca ptr, align 8
  %ehselector.slot = alloca i32, align 4
  store ptr %this, ptr %this.addr, align 8
  store ptr %key, ptr %key.addr, align 8
  store ptr %value, ptr %value.addr, align 8
  store ptr %status, ptr %status.addr, align 8
  %this1 = load ptr, ptr %this.addr, align 8
  %hash = getelementptr inbounds %"class.icu_75::Hashtable", ptr %this1, i32 0, i32 0
  %0 = load ptr, ptr %hash, align 8
  %call = call noundef ptr @_ZN6icu_757UMemorynwEm(i64 noundef 64) #9
  %new.isnull = icmp eq ptr %call, null
  store i1 false, ptr %cleanup.cond, align 1
  br i1 %new.isnull, label %new.cont, label %new.notnull

new.notnull:                                      ; preds = %entry
  store i1 true, ptr %cleanup.cond, align 1
  %1 = load ptr, ptr %key.addr, align 8
  invoke void @_ZN6icu_7513UnicodeStringC1ERKS0_(ptr noundef nonnull align 8 dereferenceable(64) %call, ptr noundef nonnull align 8 dereferenceable(64) %1)
          to label %invoke.cont unwind label %lpad

invoke.cont:                                      ; preds = %new.notnull
  br label %new.cont

new.cont:                                         ; preds = %invoke.cont, %entry
  %2 = phi ptr [ %call, %invoke.cont ], [ null, %entry ]
  %3 = load ptr, ptr %value.addr, align 8
  %4 = load ptr, ptr %status.addr, align 8
  %call2 = call ptr @uhash_put_75(ptr noundef %0, ptr noundef %2, ptr noundef %3, ptr noundef %4)
  ret ptr %call2

lpad:                                             ; preds = %new.notnull
  %5 = landingpad { ptr, i32 }
          cleanup
  %6 = extractvalue { ptr, i32 } %5, 0
  store ptr %6, ptr %exn.slot, align 8
  %7 = extractvalue { ptr, i32 } %5, 1
  store i32 %7, ptr %ehselector.slot, align 4
  %cleanup.is_active = load i1, ptr %cleanup.cond, align 1
  br i1 %cleanup.is_active, label %cleanup.action, label %cleanup.done

cleanup.action:                                   ; preds = %lpad
  call void @_ZN6icu_757UMemorydlEPv(ptr noundef %call) #9
  br label %cleanup.done

cleanup.done:                                     ; preds = %cleanup.action, %lpad
  br label %eh.resume

eh.resume:                                        ; preds = %cleanup.done
  %exn = load ptr, ptr %exn.slot, align 8
  %sel = load i32, ptr %ehselector.slot, align 4
  %lpad.val = insertvalue { ptr, i32 } poison, ptr %exn, 0
  %lpad.val3 = insertvalue { ptr, i32 } %lpad.val, i32 %sel, 1
  resume { ptr, i32 } %lpad.val3
}

; Function Attrs: mustprogress uwtable
define linkonce_odr void @_ZN6icu_7513UnicodeStringC2Ev(ptr noundef nonnull align 8 dereferenceable(64) %this) unnamed_addr #1 comdat align 2 {
entry:
  %this.addr = alloca ptr, align 8
  store ptr %this, ptr %this.addr, align 8
  %this1 = load ptr, ptr %this.addr, align 8
  call void @_ZN6icu_7511ReplaceableC2Ev(ptr noundef nonnull align 8 dereferenceable(8) %this1)
  store ptr getelementptr inbounds ({ [13 x ptr] }, ptr @_ZTVN6icu_7513UnicodeStringE, i32 0, i32 0, i32 2), ptr %this1, align 8
  %fUnion2 = getelementptr inbounds %"class.icu_75::UnicodeString", ptr %this1, i32 0, i32 1
  %fLengthAndFlags = getelementptr inbounds %struct.anon, ptr %fUnion2, i32 0, i32 0
  store i16 2, ptr %fLengthAndFlags, align 8
  ret void
}

; Function Attrs: mustprogress uwtable
define linkonce_odr noundef ptr @_ZNK6icu_759Hashtable11nextElementERi(ptr noundef nonnull align 8 dereferenceable(88) %this, ptr noundef nonnull align 4 dereferenceable(4) %pos) #1 comdat align 2 {
entry:
  %this.addr = alloca ptr, align 8
  %pos.addr = alloca ptr, align 8
  store ptr %this, ptr %this.addr, align 8
  store ptr %pos, ptr %pos.addr, align 8
  %this1 = load ptr, ptr %this.addr, align 8
  %hash = getelementptr inbounds %"class.icu_75::Hashtable", ptr %this1, i32 0, i32 0
  %0 = load ptr, ptr %hash, align 8
  %1 = load ptr, ptr %pos.addr, align 8
  %call = call ptr @uhash_nextElement_75(ptr noundef %0, ptr noundef %1)
  ret ptr %call
}

; Function Attrs: mustprogress nounwind uwtable
define internal noundef signext i8 @_ZL9U_FAILURE10UErrorCode(i32 noundef %code) #0 {
entry:
  %code.addr = alloca i32, align 4
  store i32 %code, ptr %code.addr, align 4
  %0 = load i32, ptr %code.addr, align 4
  %cmp = icmp sgt i32 %0, 0
  %conv = zext i1 %cmp to i8
  ret i8 %conv
}

; Function Attrs: mustprogress uwtable
define void @_ZN6icu_7516DateIntervalInfo8copyHashEPKNS_9HashtableEPS1_R10UErrorCode(ptr noundef nonnull align 8 dereferenceable(88) %this, ptr noundef %source, ptr noundef %target, ptr noundef nonnull align 4 dereferenceable(4) %status) #1 align 2 personality ptr @__gxx_personality_v0 {
entry:
  %this.addr = alloca ptr, align 8
  %source.addr = alloca ptr, align 8
  %target.addr = alloca ptr, align 8
  %status.addr = alloca ptr, align 8
  %pos = alloca i32, align 4
  %element = alloca ptr, align 8
  %keyTok = alloca %union.UElement, align 8
  %key5 = alloca ptr, align 8
  %valueTok = alloca %union.UElement, align 8
  %value6 = alloca ptr, align 8
  %copy = alloca ptr, align 8
  %saved-rvalue = alloca ptr, align 8
  %cleanup.cond = alloca i1, align 1
  %cond-cleanup.save = alloca ptr, align 8
  %cond-cleanup.save8 = alloca ptr, align 8
  %cleanup.cond9 = alloca i1, align 1
  %exn.slot = alloca ptr, align 8
  %ehselector.slot = alloca i32, align 4
  %i = alloca i8, align 1
  %ref.tmp = alloca %"class.icu_75::UnicodeString", align 8
  store ptr %this, ptr %this.addr, align 8
  store ptr %source, ptr %source.addr, align 8
  store ptr %target, ptr %target.addr, align 8
  store ptr %status, ptr %status.addr, align 8
  %0 = load ptr, ptr %status.addr, align 8
  %1 = load i32, ptr %0, align 4
  %call = call noundef signext i8 @_ZL9U_FAILURE10UErrorCode(i32 noundef %1)
  %tobool = icmp ne i8 %call, 0
  br i1 %tobool, label %if.then, label %if.end

if.then:                                          ; preds = %entry
  br label %if.end28

if.end:                                           ; preds = %entry
  store i32 -1, ptr %pos, align 4
  store ptr null, ptr %element, align 8
  %2 = load ptr, ptr %source.addr, align 8
  %tobool2 = icmp ne ptr %2, null
  br i1 %tobool2, label %if.then3, label %if.end28

if.then3:                                         ; preds = %if.end
  br label %while.cond

while.cond:                                       ; preds = %if.end27, %if.then3
  %3 = load ptr, ptr %source.addr, align 8
  %call4 = call noundef ptr @_ZNK6icu_759Hashtable11nextElementERi(ptr noundef nonnull align 8 dereferenceable(88) %3, ptr noundef nonnull align 4 dereferenceable(4) %pos)
  store ptr %call4, ptr %element, align 8
  %cmp = icmp ne ptr %call4, null
  br i1 %cmp, label %while.body, label %while.end

while.body:                                       ; preds = %while.cond
  %4 = load ptr, ptr %element, align 8
  %key = getelementptr inbounds %struct.UHashElement, ptr %4, i32 0, i32 2
  call void @llvm.memcpy.p0.p0.i64(ptr align 8 %keyTok, ptr align 8 %key, i64 8, i1 false)
  %5 = load ptr, ptr %keyTok, align 8
  store ptr %5, ptr %key5, align 8
  %6 = load ptr, ptr %element, align 8
  %value = getelementptr inbounds %struct.UHashElement, ptr %6, i32 0, i32 1
  call void @llvm.memcpy.p0.p0.i64(ptr align 8 %valueTok, ptr align 8 %value, i64 8, i1 false)
  %7 = load ptr, ptr %valueTok, align 8
  store ptr %7, ptr %value6, align 8
  %call7 = call noundef ptr @_ZN6icu_757UMemorynaEm(i64 noundef 584) #9
  %new.isnull = icmp eq ptr %call7, null
  store i1 false, ptr %cleanup.cond, align 1
  store i1 false, ptr %cleanup.cond9, align 1
  br i1 %new.isnull, label %new.cont, label %new.notnull

new.notnull:                                      ; preds = %while.body
  store ptr %call7, ptr %saved-rvalue, align 8
  store i1 true, ptr %cleanup.cond, align 1
  store i64 9, ptr %call7, align 8
  %8 = getelementptr inbounds i8, ptr %call7, i64 8
  %arrayctor.end = getelementptr inbounds %"class.icu_75::UnicodeString", ptr %8, i64 9
  br label %arrayctor.loop

arrayctor.loop:                                   ; preds = %invoke.cont, %new.notnull
  %arrayctor.cur = phi ptr [ %8, %new.notnull ], [ %arrayctor.next, %invoke.cont ]
  store ptr %8, ptr %cond-cleanup.save, align 8
  store ptr %arrayctor.cur, ptr %cond-cleanup.save8, align 8
  store i1 true, ptr %cleanup.cond9, align 1
  invoke void @_ZN6icu_7513UnicodeStringC2Ev(ptr noundef nonnull align 8 dereferenceable(64) %arrayctor.cur)
          to label %invoke.cont unwind label %lpad

invoke.cont:                                      ; preds = %arrayctor.loop
  %arrayctor.next = getelementptr inbounds %"class.icu_75::UnicodeString", ptr %arrayctor.cur, i64 1
  %arrayctor.done = icmp eq ptr %arrayctor.next, %arrayctor.end
  br i1 %arrayctor.done, label %arrayctor.cont, label %arrayctor.loop

arrayctor.cont:                                   ; preds = %invoke.cont
  br label %new.cont

new.cont:                                         ; preds = %arrayctor.cont, %while.body
  %9 = phi ptr [ %8, %arrayctor.cont ], [ null, %while.body ]
  store ptr %9, ptr %copy, align 8
  %10 = load ptr, ptr %copy, align 8
  %cmp14 = icmp eq ptr %10, null
  br i1 %cmp14, label %if.then15, label %if.end16

if.then15:                                        ; preds = %new.cont
  %11 = load ptr, ptr %status.addr, align 8
  store i32 7, ptr %11, align 4
  br label %if.end28

lpad:                                             ; preds = %arrayctor.loop
  %12 = landingpad { ptr, i32 }
          cleanup
  %13 = extractvalue { ptr, i32 } %12, 0
  store ptr %13, ptr %exn.slot, align 8
  %14 = extractvalue { ptr, i32 } %12, 1
  store i32 %14, ptr %ehselector.slot, align 4
  %cleanup.is_active = load i1, ptr %cleanup.cond9, align 1
  br i1 %cleanup.is_active, label %cleanup.action, label %cleanup.done

cleanup.action:                                   ; preds = %lpad
  %15 = load ptr, ptr %cond-cleanup.save, align 8
  %16 = load ptr, ptr %cond-cleanup.save8, align 8
  %arraydestroy.isempty = icmp eq ptr %15, %16
  br i1 %arraydestroy.isempty, label %arraydestroy.done10, label %arraydestroy.body

arraydestroy.body:                                ; preds = %arraydestroy.body, %cleanup.action
  %arraydestroy.elementPast = phi ptr [ %16, %cleanup.action ], [ %arraydestroy.element, %arraydestroy.body ]
  %arraydestroy.element = getelementptr inbounds %"class.icu_75::UnicodeString", ptr %arraydestroy.elementPast, i64 -1
  call void @_ZN6icu_7513UnicodeStringD1Ev(ptr noundef nonnull align 8 dereferenceable(64) %arraydestroy.element) #9
  %arraydestroy.done = icmp eq ptr %arraydestroy.element, %15
  br i1 %arraydestroy.done, label %arraydestroy.done10, label %arraydestroy.body

arraydestroy.done10:                              ; preds = %arraydestroy.body, %cleanup.action
  br label %cleanup.done

cleanup.done:                                     ; preds = %arraydestroy.done10, %lpad
  %cleanup.is_active11 = load i1, ptr %cleanup.cond, align 1
  br i1 %cleanup.is_active11, label %cleanup.action12, label %cleanup.done13

cleanup.action12:                                 ; preds = %cleanup.done
  %17 = load ptr, ptr %saved-rvalue, align 8
  call void @_ZN6icu_757UMemorydaEPv(ptr noundef %17) #9
  br label %cleanup.done13

cleanup.done13:                                   ; preds = %cleanup.action12, %cleanup.done
  br label %eh.resume

if.end16:                                         ; preds = %new.cont
  store i8 0, ptr %i, align 1
  br label %for.cond

for.cond:                                         ; preds = %for.inc, %if.end16
  %18 = load i8, ptr %i, align 1
  %conv = sext i8 %18 to i32
  %cmp17 = icmp slt i32 %conv, 9
  br i1 %cmp17, label %for.body, label %for.end

for.body:                                         ; preds = %for.cond
  %19 = load ptr, ptr %value6, align 8
  %20 = load i8, ptr %i, align 1
  %idxprom = sext i8 %20 to i64
  %arrayidx = getelementptr inbounds %"class.icu_75::UnicodeString", ptr %19, i64 %idxprom
  %21 = load ptr, ptr %copy, align 8
  %22 = load i8, ptr %i, align 1
  %idxprom18 = sext i8 %22 to i64
  %arrayidx19 = getelementptr inbounds %"class.icu_75::UnicodeString", ptr %21, i64 %idxprom18
  %call20 = call noundef nonnull align 8 dereferenceable(64) ptr @_ZN6icu_7513UnicodeStringaSERKS0_(ptr noundef nonnull align 8 dereferenceable(64) %arrayidx19, ptr noundef nonnull align 8 dereferenceable(64) %arrayidx)
  br label %for.inc

for.inc:                                          ; preds = %for.body
  %23 = load i8, ptr %i, align 1
  %inc = add i8 %23, 1
  store i8 %inc, ptr %i, align 1
  br label %for.cond, !llvm.loop !7

for.end:                                          ; preds = %for.cond
  %24 = load ptr, ptr %target.addr, align 8
  %25 = load ptr, ptr %key5, align 8
  call void @_ZN6icu_7513UnicodeStringC1ERKS0_(ptr noundef nonnull align 8 dereferenceable(64) %ref.tmp, ptr noundef nonnull align 8 dereferenceable(64) %25)
  %26 = load ptr, ptr %copy, align 8
  %27 = load ptr, ptr %status.addr, align 8
  %call23 = invoke noundef ptr @_ZN6icu_759Hashtable3putERKNS_13UnicodeStringEPvR10UErrorCode(ptr noundef nonnull align 8 dereferenceable(88) %24, ptr noundef nonnull align 8 dereferenceable(64) %ref.tmp, ptr noundef %26, ptr noundef nonnull align 4 dereferenceable(4) %27)
          to label %invoke.cont22 unwind label %lpad21

invoke.cont22:                                    ; preds = %for.end
  call void @_ZN6icu_7513UnicodeStringD1Ev(ptr noundef nonnull align 8 dereferenceable(64) %ref.tmp) #9
  %28 = load ptr, ptr %status.addr, align 8
  %29 = load i32, ptr %28, align 4
  %call24 = call noundef signext i8 @_ZL9U_FAILURE10UErrorCode(i32 noundef %29)
  %tobool25 = icmp ne i8 %call24, 0
  br i1 %tobool25, label %if.then26, label %if.end27

if.then26:                                        ; preds = %invoke.cont22
  br label %if.end28

lpad21:                                           ; preds = %for.end
  %30 = landingpad { ptr, i32 }
          cleanup
  %31 = extractvalue { ptr, i32 } %30, 0
  store ptr %31, ptr %exn.slot, align 8
  %32 = extractvalue { ptr, i32 } %30, 1
  store i32 %32, ptr %ehselector.slot, align 4
  call void @_ZN6icu_7513UnicodeStringD1Ev(ptr noundef nonnull align 8 dereferenceable(64) %ref.tmp) #9
  br label %eh.resume

if.end27:                                         ; preds = %invoke.cont22
  br label %while.cond, !llvm.loop !8

while.end:                                        ; preds = %while.cond
  br label %if.end28

if.end28:                                         ; preds = %while.end, %if.then26, %if.then15, %if.end, %if.then
  ret void

eh.resume:                                        ; preds = %lpad21, %cleanup.done13
  %exn = load ptr, ptr %exn.slot, align 8
  %sel = load i32, ptr %ehselector.slot, align 4
  %lpad.val = insertvalue { ptr, i32 } poison, ptr %exn, 0
  %lpad.val29 = insertvalue { ptr, i32 } %lpad.val, i32 %sel, 1
  resume { ptr, i32 } %lpad.val29
}