; Function Attrs: mustprogress uwtable
define void @_ZN6icu_7516DateIntervalInfo8copyHashEPKNS_9HashtableEPS1_R10UErrorCode(ptr nocapture nonnull readnone align 8 %this, ptr noundef readonly %source, ptr nocapture noundef readonly %target, ptr noundef nonnull align 4 dereferenceable(4) %status) local_unnamed_addr #1 align 2 personality ptr @__gxx_personality_v0 {
entry:
  %pos = alloca i32, align 4
  %ref.tmp = alloca %"class.icu_75::UnicodeString", align 8
  %0 = load i32, ptr %status, align 4
  %cmp.i = icmp slt i32 %0, 1
  br i1 %cmp.i, label %if.end, label %if.end28

if.end:                                           ; preds = %entry
  store i32 -1, ptr %pos, align 4
  %tobool2.not = icmp eq ptr %source, null
  br i1 %tobool2.not, label %if.end28, label %while.cond

while.cond:                                       ; preds = %if.end, %invoke.cont22
  %1 = load ptr, ptr %source, align 8
  %call.i = call noundef ptr @uhash_nextElement_75(ptr noundef %1, ptr noundef nonnull %pos)
  %cmp.not = icmp eq ptr %call.i, null
  br i1 %cmp.not, label %if.end28, label %while.body

while.body:                                       ; preds = %while.cond
  %key = getelementptr inbounds i8, ptr %call.i, i64 16
  %keyTok.sroa.0.0.copyload = load ptr, ptr %key, align 8
  %value = getelementptr inbounds i8, ptr %call.i, i64 8
  %valueTok.sroa.0.0.copyload = load ptr, ptr %value, align 8
  %call7 = call noundef ptr @_ZN6icu_757UMemorynaEm(i64 noundef 584) #15
  %new.isnull = icmp eq ptr %call7, null
  br i1 %new.isnull, label %if.then15, label %new.notnull

new.notnull:                                      ; preds = %while.body
  store i64 9, ptr %call7, align 8
  br label %invoke.cont

invoke.cont:                                      ; preds = %new.notnull, %invoke.cont
  %arrayctor.cur.idx = phi i64 [ 8, %new.notnull ], [ %arrayctor.cur.add, %invoke.cont ]
  %arrayctor.cur.ptr.ptr = getelementptr inbounds i8, ptr %call7, i64 %arrayctor.cur.idx
  store ptr getelementptr inbounds ({ [13 x ptr] }, ptr @_ZTVN6icu_7513UnicodeStringE, i64 0, i32 0, i64 2), ptr %arrayctor.cur.ptr.ptr, align 8
  %fUnion2.i = getelementptr inbounds i8, ptr %arrayctor.cur.ptr.ptr, i64 8
  store i16 2, ptr %fUnion2.i, align 8
  %arrayctor.cur.add = add nuw nsw i64 %arrayctor.cur.idx, 64
  %arrayctor.done = icmp eq i64 %arrayctor.cur.add, 584
  br i1 %arrayctor.done, label %for.body.preheader, label %invoke.cont

for.body.preheader:                               ; preds = %invoke.cont
  %.ptr = getelementptr inbounds i8, ptr %call7, i64 8
  br label %for.body

if.then15:                                        ; preds = %while.body
  store i32 7, ptr %status, align 4
  br label %if.end28

for.body:                                         ; preds = %for.body.preheader, %for.body
  %indvars.iv = phi i64 [ 0, %for.body.preheader ], [ %indvars.iv.next, %for.body ]
  %arrayidx = getelementptr inbounds %"class.icu_75::UnicodeString", ptr %valueTok.sroa.0.0.copyload, i64 %indvars.iv
  %arrayidx19 = getelementptr inbounds %"class.icu_75::UnicodeString", ptr %.ptr, i64 %indvars.iv
  %call20 = call noundef nonnull align 8 dereferenceable(64) ptr @_ZN6icu_7513UnicodeStringaSERKS0_(ptr noundef nonnull align 8 dereferenceable(64) %arrayidx19, ptr noundef nonnull align 8 dereferenceable(64) %arrayidx)
  %indvars.iv.next = add nuw nsw i64 %indvars.iv, 1
  %exitcond.not = icmp eq i64 %indvars.iv.next, 9
  br i1 %exitcond.not, label %for.end, label %for.body, !llvm.loop !7

for.end:                                          ; preds = %for.body
  call void @_ZN6icu_7513UnicodeStringC1ERKS0_(ptr noundef nonnull align 8 dereferenceable(64) %ref.tmp, ptr noundef nonnull align 8 dereferenceable(64) %keyTok.sroa.0.0.copyload)
  %2 = load ptr, ptr %target, align 8
  %call.i12 = call noundef ptr @_ZN6icu_757UMemorynwEm(i64 noundef 64) #15
  %new.isnull.i = icmp eq ptr %call.i12, null
  br i1 %new.isnull.i, label %new.cont.i, label %new.notnull.i

new.notnull.i:                                    ; preds = %for.end
  invoke void @_ZN6icu_7513UnicodeStringC1ERKS0_(ptr noundef nonnull align 8 dereferenceable(64) %call.i12, ptr noundef nonnull align 8 dereferenceable(64) %ref.tmp)
          to label %new.cont.i unwind label %lpad.i

new.cont.i:                                       ; preds = %new.notnull.i, %for.end
  %call2.i13 = invoke noundef ptr @uhash_put_75(ptr noundef %2, ptr noundef %call.i12, ptr noundef nonnull %.ptr, ptr noundef nonnull %status)
          to label %invoke.cont22 unwind label %lpad21

lpad.i:                                           ; preds = %new.notnull.i
  %3 = landingpad { ptr, i32 }
          cleanup
  call void @_ZN6icu_757UMemorydlEPv(ptr noundef nonnull %call.i12) #15
  br label %lpad21.body

invoke.cont22:                                    ; preds = %new.cont.i
  call void @_ZN6icu_7513UnicodeStringD1Ev(ptr noundef nonnull align 8 dereferenceable(64) %ref.tmp) #15
  %4 = load i32, ptr %status, align 4
  %cmp.i14 = icmp slt i32 %4, 1
  br i1 %cmp.i14, label %while.cond, label %if.end28, !llvm.loop !8

lpad21:                                           ; preds = %new.cont.i
  %5 = landingpad { ptr, i32 }
          cleanup
  br label %lpad21.body

lpad21.body:                                      ; preds = %lpad.i, %lpad21
  %eh.lpad-body = phi { ptr, i32 } [ %5, %lpad21 ], [ %3, %lpad.i ]
  call void @_ZN6icu_7513UnicodeStringD1Ev(ptr noundef nonnull align 8 dereferenceable(64) %ref.tmp) #15
  resume { ptr, i32 } %eh.lpad-body

if.end28:                                         ; preds = %while.cond, %invoke.cont22, %entry, %if.then15, %if.end
  ret void
}